; ModuleID = 'source-C-CXX/56/266.c'
source_filename = "source-C-CXX/56/266.c"
target datalayout = "e-m:e-p270:32:32-p271:32:32-p272:64:64-i64:64-f80:128-n8:16:32:64-S128"
target triple = "x86_64-pc-linux-gnu"

@.str = private unnamed_addr constant [3 x i8] c"%d\00", align 1
@.str.1 = private unnamed_addr constant [3 x i8] c"ly\00", align 1

; Function Attrs: nounwind sspstrong uwtable
define dso_local void @main() local_unnamed_addr #0 {
  %1 = alloca i32, align 4
  %2 = alloca [50 x [20 x i8]], align 16
  %3 = alloca [2 x i8], align 1
  %4 = bitcast i32* %1 to i8*
  call void @llvm.lifetime.start.p0i8(i64 4, i8* nonnull %4) #5
  %5 = getelementptr inbounds [50 x [20 x i8]], [50 x [20 x i8]]* %2, i64 0, i64 0, i64 0
  call void @llvm.lifetime.start.p0i8(i64 1000, i8* nonnull %5) #5
  %6 = getelementptr inbounds [2 x i8], [2 x i8]* %3, i64 0, i64 0
  call void @llvm.lifetime.start.p0i8(i64 2, i8* nonnull %6) #5
  %7 = call i32 (i8*, ...) @__isoc99_scanf(i8* getelementptr inbounds ([3 x i8], [3 x i8]* @.str, i64 0, i64 0), i32* nonnull %1)
  %8 = getelementptr inbounds [2 x i8], [2 x i8]* %3, i64 0, i64 1
  %9 = load i32, i32* %1, align 4, !tbaa !5
  %10 = icmp slt i32 %9, 0
  br i1 %10, label %45, label %13

11:                                               ; preds = %13
  %12 = icmp slt i32 %34, 1
  br i1 %12, label %45, label %37

13:                                               ; preds = %0, %13
  %14 = phi i64 [ %33, %13 ], [ 0, %0 ]
  %15 = getelementptr inbounds [50 x [20 x i8]], [50 x [20 x i8]]* %2, i64 0, i64 %14, i64 0
  %16 = call i32 (i8*, ...) bitcast (i32 (...)* @gets to i32 (i8*, ...)*)(i8* nonnull %15) #5
  %17 = call i64 @strlen(i8* noundef nonnull %15) #6
  %18 = shl i64 %17, 32
  %19 = add i64 %18, -8589934592
  %20 = ashr exact i64 %19, 32
  %21 = getelementptr inbounds [50 x [20 x i8]], [50 x [20 x i8]]* %2, i64 0, i64 %14, i64 %20
  %22 = load i8, i8* %21, align 1, !tbaa !9
  store i8 %22, i8* %6, align 1, !tbaa !9
  %23 = add i64 %18, -4294967296
  %24 = ashr exact i64 %23, 32
  %25 = getelementptr inbounds [50 x [20 x i8]], [50 x [20 x i8]]* %2, i64 0, i64 %14, i64 %24
  %26 = load i8, i8* %25, align 1, !tbaa !9
  store i8 %26, i8* %8, align 1, !tbaa !9
  %27 = call i32 @strcmp(i8* noundef nonnull %6, i8* noundef nonnull dereferenceable(3) getelementptr inbounds ([3 x i8], [3 x i8]* @.str.1, i64 0, i64 0)) #6
  %28 = icmp sgt i32 %27, 0
  %29 = add i64 %18, -12884901888
  %30 = ashr exact i64 %29, 32
  %31 = getelementptr inbounds [50 x [20 x i8]], [50 x [20 x i8]]* %2, i64 0, i64 %14, i64 %30
  %32 = select i1 %28, i8* %31, i8* %21
  store i8 0, i8* %32, align 1, !tbaa !9
  %33 = add nuw nsw i64 %14, 1
  %34 = load i32, i32* %1, align 4, !tbaa !5
  %35 = sext i32 %34 to i64
  %36 = icmp slt i64 %14, %35
  br i1 %36, label %13, label %11, !llvm.loop !10

37:                                               ; preds = %11, %37
  %38 = phi i64 [ %41, %37 ], [ 1, %11 ]
  %39 = getelementptr inbounds [50 x [20 x i8]], [50 x [20 x i8]]* %2, i64 0, i64 %38, i64 0
  %40 = call i32 @puts(i8* nonnull %39)
  %41 = add nuw nsw i64 %38, 1
  %42 = load i32, i32* %1, align 4, !tbaa !5
  %43 = sext i32 %42 to i64
  %44 = icmp slt i64 %38, %43
  br i1 %44, label %37, label %45, !llvm.loop !12

45:                                               ; preds = %37, %0, %11
  call void @llvm.lifetime.end.p0i8(i64 2, i8* nonnull %6) #5
  call void @llvm.lifetime.end.p0i8(i64 1000, i8* nonnull %5) #5
  call void @llvm.lifetime.end.p0i8(i64 4, i8* nonnull %4) #5
  ret void
}

; Function Attrs: argmemonly mustprogress nofree nosync nounwind willreturn
declare void @llvm.lifetime.start.p0i8(i64 immarg, i8* nocapture) #1

; Function Attrs: nofree nounwind
declare noundef i32 @__isoc99_scanf(i8* nocapture noundef readonly, ...) local_unnamed_addr #2

declare i32 @gets(...) local_unnamed_addr #3

; Function Attrs: argmemonly mustprogress nofree nounwind readonly willreturn
declare i64 @strlen(i8* nocapture) local_unnamed_addr #4

; Function Attrs: argmemonly mustprogress nofree nounwind readonly willreturn
declare i32 @strcmp(i8* nocapture, i8* nocapture) local_unnamed_addr #4

; Function Attrs: nofree nounwind
declare noundef i32 @puts(i8* nocapture noundef readonly) local_unnamed_addr #2

; Function Attrs: argmemonly mustprogress nofree nosync nounwind willreturn
declare void @llvm.lifetime.end.p0i8(i64 immarg, i8* nocapture) #1


!llvm.module.flags = !{!0, !1, !2, !3}
!llvm.ident = !{!4}

!0 = !{i32 1, !"wchar_size", i32 4}
!1 = !{i32 7, !"PIC Level", i32 2}
!2 = !{i32 7, !"PIE Level", i32 2}
!3 = !{i32 7, !"uwtable", i32 1}
!4 = !{!"clang version 13.0.0"}
!5 = !{!6, !6, i64 0}
!6 = !{!"int", !7, i64 0}
!7 = !{!"omnipotent char", !8, i64 0}
!8 = !{!"Simple C/C++ TBAA"}
!9 = !{!7, !7, i64 0}
!10 = distinct !{!10, !11}
!11 = !{!"llvm.loop.mustprogress"}
!12 = distinct !{!12, !11}
